(lp0
ccopy_reg
_reconstructor
p1
(cbelpy.statements
Complex
p2
c__builtin__
object
p3
Ntp4
Rp5
(dp6
S'members'
p7
(lp8
S'RAS'
p9
aS'GTP'
p10
asbag1
(g2
g3
Ntp11
Rp12
(dp13
g7
(lp14
S'BRAF'
p15
aS'RAS'
p16
asbag1
(g2
g3
Ntp17
Rp18
(dp19
g7
(lp20
S'RAS'
p21
aS'BRAF'
p22
asbag1
(cbelpy.statements
Phosphorylation
p23
g3
Ntp24
Rp25
(dp26
S'mod_pos'
p27
S'185'
p28
sS'obj'
p29
S'p_HGNC_ERK2_pmod_P_T_185'
p30
sS'citation'
p31
NsS'stmt'
p32
Vkin_p_HGNC_MEK1_DirectlyIncreases_p_HGNC_ERK2_pmod_P_T_185
p33
sS'evidence'
p34
NsS'enz_name'
p35
S'MEK1'
p36
sS'sub_name'
p37
S'ERK2'
p38
sS'subj'
p39
S'kin_p_HGNC_MEK1'
p40
sS'annotations'
p41
(lp42
sS'mod'
p43
S'PhosphorylationThreonine'
p44
sbag1
(g23
g3
Ntp45
Rp46
(dp47
g27
S'598'
p48
sg29
S'p_HGNC_BRAF_pmod_P_T_598'
p49
sg31
Nsg32
Vkin_p_HGNC_BRAF_DirectlyIncreases_p_HGNC_BRAF_pmod_P_T_598
p50
sg34
Nsg35
S'BRAF'
p51
sg37
S'BRAF'
p52
sg39
S'kin_p_HGNC_BRAF'
p53
sg41
(lp54
sg43
S'PhosphorylationThreonine'
p55
sbag1
(g23
g3
Ntp56
Rp57
(dp58
g27
S'601'
p59
sg29
S'p_HGNC_BRAF_pmod_P_S_601'
p60
sg31
Nsg32
Vkin_p_HGNC_BRAF_DirectlyIncreases_p_HGNC_BRAF_pmod_P_S_601
p61
sg34
Nsg35
S'BRAF'
p62
sg37
S'BRAF'
p63
sg39
S'kin_p_HGNC_BRAF'
p64
sg41
(lp65
sg43
S'PhosphorylationSerine'
p66
sbag1
(g23
g3
Ntp67
Rp68
(dp69
g27
S'202'
p70
sg29
S'p_HGNC_ERK2_pmod_P_T_202'
p71
sg31
Nsg32
Vkin_p_HGNC_MEK1_DirectlyIncreases_p_HGNC_ERK2_pmod_P_T_202
p72
sg34
Nsg35
S'MEK1'
p73
sg37
S'ERK2'
p74
sg39
S'kin_p_HGNC_MEK1'
p75
sg41
(lp76
sg43
S'PhosphorylationThreonine'
p77
sbag1
(g23
g3
Ntp78
Rp79
(dp80
g27
S'218'
p81
sg29
S'p_HGNC_MEK1_pmod_P_S_218'
p82
sg31
Nsg32
Vkin_p_HGNC_BRAF_DirectlyIncreases_p_HGNC_MEK1_pmod_P_S_218
p83
sg34
Nsg35
S'BRAF'
p84
sg37
S'MEK1'
p85
sg39
S'kin_p_HGNC_BRAF'
p86
sg41
(lp87
sg43
S'PhosphorylationSerine'
p88
sbag1
(g23
g3
Ntp89
Rp90
(dp91
g27
S'222'
p92
sg29
S'p_HGNC_MEK1_pmod_P_S_222'
p93
sg31
Nsg32
Vkin_p_HGNC_BRAF_DirectlyIncreases_p_HGNC_MEK1_pmod_P_S_222
p94
sg34
Nsg35
S'BRAF'
p95
sg37
S'MEK1'
p96
sg39
S'kin_p_HGNC_BRAF'
p97
sg41
(lp98
sg43
S'PhosphorylationSerine'
p99
sbag1
(cbelpy.statements
ActivityModification
p100
g3
Ntp101
Rp102
(dp103
g27
(S'598'
p104
S'601'
p105
tp106
sg29
S'act_p_HGNC_BRAF'
p107
sS'relationship'
p108
S'DirectlyIncreases'
p109
sg31
Nsg32
Vcomposite_p_HGNC_BRAF_pmod_P_T_598_p_HGNC_BRAF_pmod_P_S_601_DirectlyIncreases_act_p_HGNC_BRAF
p110
sg34
NsS'activity'
p111
S'Activity'
p112
sS'monomer_name'
p113
S'BRAF'
p114
sg39
(S'p_HGNC_BRAF_pmod_P_T_598'
p115
S'p_HGNC_BRAF_pmod_P_S_601'
p116
tp117
sg41
(lp118
sg43
(S'PhosphorylationThreonine'
p119
S'PhosphorylationSerine'
p120
tp121
sbag1
(g100
g3
Ntp122
Rp123
(dp124
g27
(S'218'
p125
S'222'
p126
tp127
sg29
S'act_p_HGNC_MEK1'
p128
sg108
S'DirectlyIncreases'
p129
sg31
Nsg32
Vcomposite_p_HGNC_MEK1_pmod_P_S_218_p_HGNC_MEK1_pmod_P_S_222_DirectlyIncreases_act_p_HGNC_MEK1
p130
sg34
Nsg111
S'Activity'
p131
sg113
S'MEK1'
p132
sg39
(S'p_HGNC_MEK1_pmod_P_S_218'
p133
S'p_HGNC_MEK1_pmod_P_S_222'
p134
tp135
sg41
(lp136
sg43
(S'PhosphorylationSerine'
p137
S'PhosphorylationSerine'
p138
tp139
sba.